; Function Attrs: mustprogress uwtable
define noundef ptr @_ZN3net15SpdyHeaderBlock10GetStorageEv(ptr noundef nonnull align 8 captures(none) dereferenceable(88) %0) local_unnamed_addr #7 align 2 personality ptr @__gxx_personality_v0 {
  %2 = getelementptr inbounds nuw i8, ptr %0, i64 80
  %3 = load ptr, ptr %2, align 8, !tbaa !56
  %.not = icmp eq ptr %3, null
  br i1 %.not, label %4, label %_ZNSt10unique_ptrIN3net15SpdyHeaderBlock7StorageESt14default_deleteIS2_EE5resetEPS2_.exit

4:                                                ; preds = %1
  %5 = tail call noalias noundef nonnull dereferenceable(32) ptr @_Znwm(i64 noundef 32) #20
  invoke void @_ZN3net11UnsafeArenaC1Em(ptr noundef nonnull align 8 dereferenceable(32) %5, i64 noundef 2048)
          to label %_ZN3net15SpdyHeaderBlock7StorageC2Ev.exit unwind label %11

_ZN3net15SpdyHeaderBlock7StorageC2Ev.exit:        ; preds = %4
  %6 = load ptr, ptr %2, align 8, !tbaa !56
  store ptr %5, ptr %2, align 8, !tbaa !56
  %.not.i.i = icmp eq ptr %6, null
  br i1 %.not.i.i, label %_ZNSt10unique_ptrIN3net15SpdyHeaderBlock7StorageESt14default_deleteIS2_EE5resetEPS2_.exit, label %7

7:                                                ; preds = %_ZN3net15SpdyHeaderBlock7StorageC2Ev.exit
  invoke void @_ZN3net11UnsafeArena5ResetEv(ptr noundef nonnull align 8 dereferenceable(32) %6)
          to label %_ZNKSt14default_deleteIN3net15SpdyHeaderBlock7StorageEEclEPS2_.exit.i.i unwind label %8

8:                                                ; preds = %7
  %9 = landingpad { ptr, i32 }
          catch ptr null
  %10 = extractvalue { ptr, i32 } %9, 0
  tail call void @__clang_call_terminate(ptr %10) #18
  unreachable

_ZNKSt14default_deleteIN3net15SpdyHeaderBlock7StorageEEclEPS2_.exit.i.i: ; preds = %7
  tail call void @_ZN3net11UnsafeArenaD1Ev(ptr noundef nonnull align 8 dereferenceable(32) %6) #19
  tail call void @_ZdlPv(ptr noundef nonnull %6) #21
  %.pre = load ptr, ptr %2, align 8, !tbaa !56
  br label %_ZNSt10unique_ptrIN3net15SpdyHeaderBlock7StorageESt14default_deleteIS2_EE5resetEPS2_.exit

11:                                               ; preds = %4
  %12 = landingpad { ptr, i32 }
          cleanup
  tail call void @_ZdlPv(ptr noundef nonnull %5) #21
  resume { ptr, i32 } %12

_ZNSt10unique_ptrIN3net15SpdyHeaderBlock7StorageESt14default_deleteIS2_EE5resetEPS2_.exit: ; preds = %_ZNKSt14default_deleteIN3net15SpdyHeaderBlock7StorageEEclEPS2_.exit.i.i, %_ZN3net15SpdyHeaderBlock7StorageC2Ev.exit, %1
  %13 = phi ptr [ %.pre, %_ZNKSt14default_deleteIN3net15SpdyHeaderBlock7StorageEEclEPS2_.exit.i.i ], [ %5, %_ZN3net15SpdyHeaderBlock7StorageC2Ev.exit ], [ %3, %1 ]
  ret ptr %13
}